(lp0
(dp1
S'sl'
p2
(dp3
I1
I100
sI2
I172
sI3
I308
sI4
I846
sI5
I1080
sI6
I1196
sI7
I1497
sI8
I1744
sI9
I1851
sI10
I1840
sI11
I1878
sI12
I1838
sI13
I1944
sI14
I1924
sI15
I1850
sI16
I1966
sI17
I1968
sI18
I2000
sI19
I1966
sI20
I2000
ssS'tc'
p4
(dp5
I1
I100
sI2
I100
sI3
I100
sI4
I100
sI5
I100
sI6
I100
sI7
I100
sI8
I100
sI9
I100
sI10
I100
sI11
I100
sI12
I100
sI13
I100
sI14
I100
sI15
I100
sI16
I100
sI17
I100
sI18
I100
sI19
I100
sI20
I100
ssS'rc'
p6
(dp7
I1
I100
sI2
I100
sI3
I96
sI4
I66
sI5
I54
sI6
I48
sI7
I31
sI8
I16
sI9
I9
sI10
I10
sI11
I8
sI12
I10
sI13
I4
sI14
I5
sI15
I10
sI16
I3
sI17
I2
sI18
I0
sI19
I2
sI20
I0
ssa(dp8
g2
(dp9
I1
I100
sI2
I168
sI3
I254
sI4
I704
sI5
I1040
sI6
I1220
sI7
I1540
sI8
I1642
sI9
I1764
sI10
I1780
sI11
I1887
sI12
I1852
sI13
I1902
sI14
I1876
sI15
I1985
sI16
I1966
sI17
I1934
sI18
I1984
sI19
I1968
sI20
I1984
ssg4
(dp10
I1
I100
sI2
I100
sI3
I100
sI4
I100
sI5
I100
sI6
I100
sI7
I100
sI8
I100
sI9
I100
sI10
I100
sI11
I100
sI12
I100
sI13
I100
sI14
I100
sI15
I100
sI16
I100
sI17
I100
sI18
I100
sI19
I100
sI20
I100
ssg6
(dp11
I1
I100
sI2
I100
sI3
I98
sI4
I76
sI5
I56
sI6
I45
sI7
I28
sI8
I22
sI9
I14
sI10
I14
sI11
I7
sI12
I9
sI13
I6
sI14
I7
sI15
I1
sI16
I3
sI17
I4
sI18
I1
sI19
I2
sI20
I1
ssa(dp12
g2
(dp13
I1
I100
sI2
I166
sI3
I260
sI4
I768
sI5
I1060
sI6
I1282
sI7
I1394
sI8
I1552
sI9
I1608
sI10
I1788
sI11
I1838
sI12
I1846
sI13
I1932
sI14
I1922
sI15
I1938
sI16
I1954
sI17
I1983
sI18
I1968
sI19
I1964
sI20
I2000
ssg4
(dp14
I1
I100
sI2
I100
sI3
I100
sI4
I100
sI5
I100
sI6
I100
sI7
I100
sI8
I100
sI9
I100
sI10
I100
sI11
I100
sI12
I100
sI13
I100
sI14
I100
sI15
I100
sI16
I100
sI17
I100
sI18
I100
sI19
I100
sI20
I100
ssg6
(dp15
I1
I100
sI2
I100
sI3
I98
sI4
I72
sI5
I54
sI6
I43
sI7
I36
sI8
I28
sI9
I24
sI10
I14
sI11
I10
sI12
I10
sI13
I4
sI14
I5
sI15
I4
sI16
I3
sI17
I1
sI18
I2
sI19
I2
sI20
I0
ssa.